target datalayout = "e-m:e-p270:32:32-p271:32:32-p272:64:64-i64:64-i128:128-f80:128-n8:16:32:64-S128"
target triple = "x86_64-unknown-linux-gnu"

%struct.QTailQLink = type { ptr, ptr }
%struct.AHCIState = type { ptr, ptr, %struct.AHCIControlRegs, %struct.MemoryRegion, %struct.MemoryRegion, i32, i32, i32, ptr, ptr }
%struct.AHCIControlRegs = type { i32, i32, i32, i32, i32 }
%struct.MemoryRegion = type { %struct.Object, i8, i8, i8, i8, i8, i8, i8, i8, i8, i8, ptr, ptr, ptr, ptr, ptr, ptr, i32, i128, i64, ptr, i64, i8, i8, i8, i8, i8, ptr, i64, i32, %union.anon, %union.anon.0, %union.anon.1, ptr, i32, ptr, ptr, i8 }
%struct.Object = type { ptr, ptr, ptr, i32, ptr }
%union.anon = type { %struct.QTailQLink }
%union.anon.0 = type { %struct.QTailQLink }
%union.anon.1 = type { %struct.QTailQLink }

; Function Attrs: nounwind sspstrong uwtable
define internal void @ahci_idp_write(ptr noundef %opaque, i64 noundef %addr, i64 noundef %val, i32 noundef %size) #0 {
entry:
  %opaque.addr = alloca ptr, align 8
  %addr.addr = alloca i64, align 8
  %val.addr = alloca i64, align 8
  %size.addr = alloca i32, align 4
  %s = alloca ptr, align 8
  store ptr %opaque, ptr %opaque.addr, align 8
  store i64 %addr, ptr %addr.addr, align 8
  store i64 %val, ptr %val.addr, align 8
  store i32 %size, ptr %size.addr, align 4
  %0 = load ptr, ptr %opaque.addr, align 8
  store ptr %0, ptr %s, align 8
  %1 = load i64, ptr %addr.addr, align 8
  %2 = load ptr, ptr %s, align 8
  %idp_offset = getelementptr inbounds %struct.AHCIState, ptr %2, i32 0, i32 5
  %3 = load i32, ptr %idp_offset, align 16
  %conv = zext i32 %3 to i64
  %cmp = icmp eq i64 %1, %conv
  br i1 %cmp, label %if.then, label %if.else

if.then:                                          ; preds = %entry
  %4 = load i64, ptr %val.addr, align 8
  %conv2 = trunc i64 %4 to i32
  %and = and i32 %conv2, 4092
  %5 = load ptr, ptr %s, align 8
  %idp_index = getelementptr inbounds %struct.AHCIState, ptr %5, i32 0, i32 6
  store i32 %and, ptr %idp_index, align 4
  br label %if.end10

if.else:                                          ; preds = %entry
  %6 = load i64, ptr %addr.addr, align 8
  %7 = load ptr, ptr %s, align 8
  %idp_offset3 = getelementptr inbounds %struct.AHCIState, ptr %7, i32 0, i32 5
  %8 = load i32, ptr %idp_offset3, align 16
  %add = add i32 %8, 4
  %conv4 = zext i32 %add to i64
  %cmp5 = icmp eq i64 %6, %conv4
  br i1 %cmp5, label %if.then7, label %if.end

if.then7:                                         ; preds = %if.else
  %9 = load ptr, ptr %opaque.addr, align 8
  %10 = load ptr, ptr %s, align 8
  %idp_index8 = getelementptr inbounds %struct.AHCIState, ptr %10, i32 0, i32 6
  %11 = load i32, ptr %idp_index8, align 4
  %conv9 = zext i32 %11 to i64
  %12 = load i64, ptr %val.addr, align 8
  %13 = load i32, ptr %size.addr, align 4
  call void @ahci_mem_write(ptr noundef %9, i64 noundef %conv9, i64 noundef %12, i32 noundef %13)
  br label %if.end

if.end:                                           ; preds = %if.then7, %if.else
  br label %if.end10

if.end10:                                         ; preds = %if.end, %if.then
  ret void
}