; Function Attrs: nounwind sspstrong uwtable
define internal void @ahci_idp_write(ptr noundef %opaque, i64 noundef %addr, i64 noundef %val, i32 noundef %size) #0 {
entry:
  %idp_offset = getelementptr inbounds nuw i8, ptr %opaque, i64 592
  %0 = load i32, ptr %idp_offset, align 16
  %conv = zext i32 %0 to i64
  %cmp = icmp eq i64 %addr, %conv
  br i1 %cmp, label %if.then, label %if.else

if.then:                                          ; preds = %entry
  %conv2 = trunc i64 %val to i32
  %and = and i32 %conv2, 4092
  %idp_index = getelementptr inbounds nuw i8, ptr %opaque, i64 596
  store i32 %and, ptr %idp_index, align 4
  br label %if.end10

if.else:                                          ; preds = %entry
  %add = add i32 %0, 4
  %conv4 = zext i32 %add to i64
  %cmp5 = icmp eq i64 %addr, %conv4
  br i1 %cmp5, label %if.then7, label %if.end10

if.then7:                                         ; preds = %if.else
  %idp_index8 = getelementptr inbounds nuw i8, ptr %opaque, i64 596
  %1 = load i32, ptr %idp_index8, align 4
  %conv9 = zext i32 %1 to i64
  tail call void @ahci_mem_write(ptr noundef nonnull %opaque, i64 noundef %conv9, i64 noundef %val, i32 noundef %size)
  br label %if.end10

if.end10:                                         ; preds = %if.else, %if.then7, %if.then
  ret void
}